; Function Attrs: nofree nosync nounwind memory(readwrite, inaccessiblemem: none) uwtable
define i32 @Sfm_ObjMffcSize(ptr noundef readonly captures(none) %0, i32 noundef %1) local_unnamed_addr #0 {
  %3 = getelementptr i8, ptr %0, i64 8
  %.val = load i32, ptr %3, align 8, !tbaa !3
  %.not = icmp slt i32 %1, %.val
  br i1 %.not, label %Sfm_ObjRef.exit, label %4

4:                                                ; preds = %2
  %5 = getelementptr i8, ptr %0, i64 96
  %.val10 = load ptr, ptr %5, align 8, !tbaa !19
  %6 = sext i32 %1 to i64
  %7 = getelementptr %struct.Vec_Int_t_, ptr %.val10, i64 %6, i32 1
  %.val1.i = load i32, ptr %7, align 4, !tbaa !20
  %.not9 = icmp eq i32 %.val1.i, 1
  br i1 %.not9, label %8, label %Sfm_ObjRef.exit

8:                                                ; preds = %4
  %9 = getelementptr i8, ptr %0, i64 64
  %.val12.i = load ptr, ptr %9, align 8, !tbaa !19
  %10 = getelementptr %struct.Vec_Int_t_, ptr %.val12.i, i64 %6, i32 1
  %.val1.i13.i = load i32, ptr %10, align 4, !tbaa !20
  %11 = icmp sgt i32 %.val1.i13.i, 0
  br i1 %11, label %.lr.ph.i, label %Sfm_ObjRef.exit

.lr.ph.i:                                         ; preds = %8, %.lr.ph.i
  %indvars.iv.i = phi i64 [ %indvars.iv.next.i, %.lr.ph.i ], [ 0, %8 ]
  %.val16.i = phi ptr [ %.val.i, %.lr.ph.i ], [ %.val12.i, %8 ]
  %.015.i = phi i32 [ %16, %.lr.ph.i ], [ 1, %8 ]
  %12 = getelementptr %struct.Vec_Int_t_, ptr %.val16.i, i64 %6, i32 2
  %.val2.i.i = load ptr, ptr %12, align 8, !tbaa !21
  %13 = getelementptr inbounds nuw i32, ptr %.val2.i.i, i64 %indvars.iv.i
  %14 = load i32, ptr %13, align 4, !tbaa !22
  %15 = tail call i32 @Sfm_ObjDeref_rec(ptr noundef nonnull readonly %0, i32 noundef %14)
  %16 = add nsw i32 %15, %.015.i
  %indvars.iv.next.i = add nuw nsw i64 %indvars.iv.i, 1
  %.val.i = load ptr, ptr %9, align 8, !tbaa !19
  %17 = getelementptr %struct.Vec_Int_t_, ptr %.val.i, i64 %6, i32 1
  %.val1.i.i = load i32, ptr %17, align 4, !tbaa !20
  %18 = sext i32 %.val1.i.i to i64
  %19 = icmp slt i64 %indvars.iv.next.i, %18
  br i1 %19, label %.lr.ph.i, label %Sfm_ObjDeref.exit, !llvm.loop !27

Sfm_ObjDeref.exit:                                ; preds = %.lr.ph.i
  %20 = icmp sgt i32 %.val1.i.i, 0
  br i1 %20, label %.lr.ph.i14, label %Sfm_ObjRef.exit

.lr.ph.i14:                                       ; preds = %Sfm_ObjDeref.exit, %.lr.ph.i14
  %indvars.iv.i15 = phi i64 [ %indvars.iv.next.i19, %.lr.ph.i14 ], [ 0, %Sfm_ObjDeref.exit ]
  %.val16.i16 = phi ptr [ %.val.i20, %.lr.ph.i14 ], [ %.val.i, %Sfm_ObjDeref.exit ]
  %21 = getelementptr %struct.Vec_Int_t_, ptr %.val16.i16, i64 %6, i32 2
  %.val2.i.i18 = load ptr, ptr %21, align 8, !tbaa !21
  %22 = getelementptr inbounds nuw i32, ptr %.val2.i.i18, i64 %indvars.iv.i15
  %23 = load i32, ptr %22, align 4, !tbaa !22
  %24 = tail call i32 @Sfm_ObjRef_rec(ptr noundef nonnull readonly %0, i32 noundef %23)
  %indvars.iv.next.i19 = add nuw nsw i64 %indvars.iv.i15, 1
  %.val.i20 = load ptr, ptr %9, align 8, !tbaa !19
  %25 = getelementptr %struct.Vec_Int_t_, ptr %.val.i20, i64 %6, i32 1
  %.val1.i.i21 = load i32, ptr %25, align 4, !tbaa !20
  %26 = sext i32 %.val1.i.i21 to i64
  %27 = icmp slt i64 %indvars.iv.next.i19, %26
  br i1 %27, label %.lr.ph.i14, label %Sfm_ObjRef.exit, !llvm.loop !25

Sfm_ObjRef.exit:                                  ; preds = %.lr.ph.i14, %8, %Sfm_ObjDeref.exit, %4, %2
  %.0 = phi i32 [ 0, %2 ], [ 0, %4 ], [ %16, %Sfm_ObjDeref.exit ], [ 1, %8 ], [ %16, %.lr.ph.i14 ]
  ret i32 %.0
}